target datalayout = "e-m:e-p270:32:32-p271:32:32-p272:64:64-i64:64-i128:128-f80:128-n8:16:32:64-S128"
target triple = "x86_64-pc-linux-gnu"

%class.svector = type { %class.vector.0 }
%class.vector.0 = type { ptr }
%"class.datalog::table_signature" = type <{ %"class.datalog::tr_infrastructure<datalog::table_traits>::signature_base", i32, [4 x i8] }>
%"class.datalog::tr_infrastructure<datalog::table_traits>::signature_base" = type { %class.svector }
%"class.datalog::tr_infrastructure<datalog::table_traits>::base_ancestor" = type <{ ptr, ptr, %"class.datalog::table_signature", i32, [4 x i8] }>

; Function Attrs: mustprogress nounwind uwtable
define linkonce_odr hidden noundef i32 @_ZNK7datalog15table_signature18functional_columnsEv(ptr noundef nonnull align 8 dereferenceable(12) %0) #6 comdat align 2 {
  %2 = alloca ptr, align 8
  store ptr %0, ptr %2, align 8, !tbaa !365
  %3 = load ptr, ptr %2, align 8
  %4 = getelementptr inbounds nuw %"class.datalog::table_signature", ptr %3, i32 0, i32 1
  %5 = load i32, ptr %4, align 8, !tbaa !375
  ret i32 %5
}

; Function Attrs: mustprogress nounwind uwtable
define linkonce_odr hidden noundef nonnull align 8 dereferenceable(12) ptr @_ZNK7datalog17tr_infrastructureINS_12table_traitsEE13base_ancestor13get_signatureEv(ptr noundef nonnull align 8 dereferenceable(36) %0) #6 comdat align 2 {
  %2 = alloca ptr, align 8
  store ptr %0, ptr %2, align 8, !tbaa !408
  %3 = load ptr, ptr %2, align 8
  %4 = getelementptr inbounds nuw %"class.datalog::tr_infrastructure<datalog::table_traits>::base_ancestor", ptr %3, i32 0, i32 2
  ret ptr %4
}

; Function Attrs: mustprogress uwtable
define hidden noundef zeroext i1 @_ZN7datalog10table_base12suggest_factER7svectorImjE(ptr noundef nonnull align 8 dereferenceable(36) %0, ptr noundef nonnull align 8 dereferenceable(8) %1) unnamed_addr #4 align 2 {
  %3 = alloca i1, align 1
  %4 = alloca ptr, align 8
  %5 = alloca ptr, align 8
  store ptr %0, ptr %4, align 8, !tbaa !10
  store ptr %1, ptr %5, align 8, !tbaa !404
  %6 = load ptr, ptr %4, align 8
  %7 = call noundef nonnull align 8 dereferenceable(12) ptr @_ZNK7datalog17tr_infrastructureINS_12table_traitsEE13base_ancestor13get_signatureEv(ptr noundef nonnull align 8 dereferenceable(36) %6)
  %8 = call noundef i32 @_ZNK7datalog15table_signature18functional_columnsEv(ptr noundef nonnull align 8 dereferenceable(12) %7)
  %9 = icmp eq i32 %8, 0
  br i1 %9, label %10, label %22

10:                                               ; preds = %2
  %11 = load ptr, ptr %5, align 8, !tbaa !404
  %12 = load ptr, ptr %6, align 8, !tbaa !8
  %13 = getelementptr inbounds ptr, ptr %12, i64 7
  %14 = load ptr, ptr %13, align 8
  %15 = call noundef zeroext i1 %14(ptr noundef nonnull align 8 dereferenceable(36) %6, ptr noundef nonnull align 8 dereferenceable(8) %11)
  br i1 %15, label %16, label %17

16:                                               ; preds = %10
  store i1 false, ptr %3, align 1
  br label %34

17:                                               ; preds = %10
  %18 = load ptr, ptr %5, align 8, !tbaa !404
  %19 = load ptr, ptr %6, align 8, !tbaa !8
  %20 = getelementptr inbounds ptr, ptr %19, i64 6
  %21 = load ptr, ptr %20, align 8
  call void %21(ptr noundef nonnull align 8 dereferenceable(36) %6, ptr noundef nonnull align 8 dereferenceable(8) %18)
  store i1 true, ptr %3, align 1
  br label %34

22:                                               ; preds = %2
  %23 = load ptr, ptr %5, align 8, !tbaa !404
  %24 = load ptr, ptr %6, align 8, !tbaa !8
  %25 = getelementptr inbounds ptr, ptr %24, i64 18
  %26 = load ptr, ptr %25, align 8
  %27 = call noundef zeroext i1 %26(ptr noundef nonnull align 8 dereferenceable(36) %6, ptr noundef nonnull align 8 dereferenceable(8) %23)
  br i1 %27, label %28, label %29

28:                                               ; preds = %22
  store i1 false, ptr %3, align 1
  br label %34

29:                                               ; preds = %22
  %30 = load ptr, ptr %5, align 8, !tbaa !404
  %31 = load ptr, ptr %6, align 8, !tbaa !8
  %32 = getelementptr inbounds ptr, ptr %31, i64 6
  %33 = load ptr, ptr %32, align 8
  call void %33(ptr noundef nonnull align 8 dereferenceable(36) %6, ptr noundef nonnull align 8 dereferenceable(8) %30)
  store i1 true, ptr %3, align 1
  br label %34

34:                                               ; preds = %29, %28, %17, %16
  %35 = load i1, ptr %3, align 1
  ret i1 %35
}