; Function Attrs: mustprogress uwtable
define hidden noundef zeroext i1 @_ZN7datalog10table_base12suggest_factER7svectorImjE(ptr noundef nonnull align 8 dereferenceable(36) %0, ptr noundef nonnull align 8 dereferenceable(8) %1) unnamed_addr #3 align 2 {
  %3 = getelementptr inbounds nuw i8, ptr %0, i64 24
  %4 = load i32, ptr %3, align 8, !tbaa !329
  %5 = icmp eq i32 %4, 0
  %6 = load ptr, ptr %0, align 8, !tbaa !3
  br i1 %5, label %7, label %11

7:                                                ; preds = %2
  %8 = getelementptr inbounds nuw i8, ptr %6, i64 56
  %9 = load ptr, ptr %8, align 8
  %10 = tail call noundef zeroext i1 %9(ptr noundef nonnull align 8 dereferenceable(36) %0, ptr noundef nonnull align 8 dereferenceable(8) %1)
  br i1 %10, label %18, label %.sink.split

11:                                               ; preds = %2
  %12 = getelementptr inbounds nuw i8, ptr %6, i64 144
  %13 = load ptr, ptr %12, align 8
  %14 = tail call noundef zeroext i1 %13(ptr noundef nonnull align 8 dereferenceable(36) %0, ptr noundef nonnull align 8 dereferenceable(8) %1)
  br i1 %14, label %18, label %.sink.split

.sink.split:                                      ; preds = %11, %7
  %15 = load ptr, ptr %0, align 8, !tbaa !3
  %16 = getelementptr inbounds nuw i8, ptr %15, i64 48
  %17 = load ptr, ptr %16, align 8
  tail call void %17(ptr noundef nonnull align 8 dereferenceable(36) %0, ptr noundef nonnull align 8 dereferenceable(8) %1)
  br label %18

18:                                               ; preds = %.sink.split, %11, %7
  %.0 = phi i1 [ false, %7 ], [ false, %11 ], [ true, %.sink.split ]
  ret i1 %.0
}